; ModuleID = '24/1120.c'
source_filename = "24/1120.c"
target datalayout = "e-m:e-p270:32:32-p271:32:32-p272:64:64-i64:64-f80:128-n8:16:32:64-S128"
target triple = "x86_64-pc-linux-gnu"

@.str = private unnamed_addr constant [4 x i8] c"%s\0A\00", align 1

; Function Attrs: noinline nounwind uwtable
define dso_local i32 @main() #0 {
  %1 = alloca i32, align 4
  %2 = alloca [10000 x i8], align 16
  %3 = alloca [100 x [100 x i8]], align 16
  %4 = alloca i32, align 4
  %5 = alloca i32, align 4
  %6 = alloca i32, align 4
  %7 = alloca i32, align 4
  %8 = alloca i32, align 4
  store i32 0, i32* %1, align 4
  %9 = getelementptr inbounds [10000 x i8], [10000 x i8]* %2, i64 0, i64 0
  %10 = call i32 (i8*, ...) bitcast (i32 (...)* @gets to i32 (i8*, ...)*)(i8* %9)
  store i32 0, i32* %6, align 4
  store i32 0, i32* %4, align 4
  br label %11

11:                                               ; preds = %63, %0
  store i32 0, i32* %5, align 4
  br label %12

12:                                               ; preds = %52, %11
  %13 = load i32, i32* %6, align 4
  %14 = sext i32 %13 to i64
  %15 = getelementptr inbounds [10000 x i8], [10000 x i8]* %2, i64 0, i64 %14
  %16 = load i8, i8* %15, align 1
  %17 = sext i8 %16 to i32
  %18 = icmp ne i32 %17, 32
  br i1 %18, label %19, label %41

19:                                               ; preds = %12
  %20 = load i32, i32* %6, align 4
  %21 = sext i32 %20 to i64
  %22 = getelementptr inbounds [10000 x i8], [10000 x i8]* %2, i64 0, i64 %21
  %23 = load i8, i8* %22, align 1
  %24 = sext i8 %23 to i32
  %25 = icmp ne i32 %24, 0
  br i1 %25, label %26, label %41

26:                                               ; preds = %19
  %27 = load i32, i32* %6, align 4
  %28 = sext i32 %27 to i64
  %29 = getelementptr inbounds [10000 x i8], [10000 x i8]* %2, i64 0, i64 %28
  %30 = load i8, i8* %29, align 1
  %31 = load i32, i32* %4, align 4
  %32 = sext i32 %31 to i64
  %33 = getelementptr inbounds [100 x [100 x i8]], [100 x [100 x i8]]* %3, i64 0, i64 %32
  %34 = load i32, i32* %5, align 4
  %35 = sext i32 %34 to i64
  %36 = getelementptr inbounds [100 x i8], [100 x i8]* %33, i64 0, i64 %35
  store i8 %30, i8* %36, align 1
  %37 = load i32, i32* %6, align 4
  %38 = add nsw i32 %37, 1
  store i32 %38, i32* %6, align 4
  %39 = load i32, i32* %5, align 4
  %40 = add nsw i32 %39, 1
  store i32 %40, i32* %5, align 4
  br label %52

41:                                               ; preds = %19, %12
  %42 = load i32, i32* %4, align 4
  %43 = sext i32 %42 to i64
  %44 = getelementptr inbounds [100 x [100 x i8]], [100 x [100 x i8]]* %3, i64 0, i64 %43
  %45 = load i32, i32* %5, align 4
  %46 = sext i32 %45 to i64
  %47 = getelementptr inbounds [100 x i8], [100 x i8]* %44, i64 0, i64 %46
  store i8 0, i8* %47, align 1
  %48 = load i32, i32* %6, align 4
  %49 = add nsw i32 %48, 1
  store i32 %49, i32* %6, align 4
  %50 = load i32, i32* %5, align 4
  %51 = add nsw i32 %50, 1
  store i32 %51, i32* %5, align 4
  br label %53

52:                                               ; preds = %26
  br label %12

53:                                               ; preds = %41
  %54 = load i32, i32* %6, align 4
  %55 = sub nsw i32 %54, 1
  %56 = sext i32 %55 to i64
  %57 = getelementptr inbounds [10000 x i8], [10000 x i8]* %2, i64 0, i64 %56
  %58 = load i8, i8* %57, align 1
  %59 = sext i8 %58 to i32
  %60 = icmp eq i32 %59, 0
  br i1 %60, label %61, label %62

61:                                               ; preds = %53
  br label %66

62:                                               ; preds = %53
  br label %63

63:                                               ; preds = %62
  %64 = load i32, i32* %4, align 4
  %65 = add nsw i32 %64, 1
  store i32 %65, i32* %4, align 4
  br label %11

66:                                               ; preds = %61
  store i32 0, i32* %7, align 4
  store i32 0, i32* %8, align 4
  store i32 1, i32* %5, align 4
  br label %67

67:                                               ; preds = %100, %66
  %68 = load i32, i32* %5, align 4
  %69 = load i32, i32* %4, align 4
  %70 = icmp sle i32 %68, %69
  br i1 %70, label %71, label %103

71:                                               ; preds = %67
  %72 = load i32, i32* %5, align 4
  %73 = sext i32 %72 to i64
  %74 = getelementptr inbounds [100 x [100 x i8]], [100 x [100 x i8]]* %3, i64 0, i64 %73
  %75 = getelementptr inbounds [100 x i8], [100 x i8]* %74, i64 0, i64 0
  %76 = call i64 @strlen(i8* %75) #3
  %77 = load i32, i32* %7, align 4
  %78 = sext i32 %77 to i64
  %79 = getelementptr inbounds [100 x [100 x i8]], [100 x [100 x i8]]* %3, i64 0, i64 %78
  %80 = getelementptr inbounds [100 x i8], [100 x i8]* %79, i64 0, i64 0
  %81 = call i64 @strlen(i8* %80) #3
  %82 = icmp ugt i64 %76, %81
  br i1 %82, label %83, label %85

83:                                               ; preds = %71
  %84 = load i32, i32* %5, align 4
  store i32 %84, i32* %7, align 4
  br label %85

85:                                               ; preds = %83, %71
  %86 = load i32, i32* %5, align 4
  %87 = sext i32 %86 to i64
  %88 = getelementptr inbounds [100 x [100 x i8]], [100 x [100 x i8]]* %3, i64 0, i64 %87
  %89 = getelementptr inbounds [100 x i8], [100 x i8]* %88, i64 0, i64 0
  %90 = call i64 @strlen(i8* %89) #3
  %91 = load i32, i32* %8, align 4
  %92 = sext i32 %91 to i64
  %93 = getelementptr inbounds [100 x [100 x i8]], [100 x [100 x i8]]* %3, i64 0, i64 %92
  %94 = getelementptr inbounds [100 x i8], [100 x i8]* %93, i64 0, i64 0
  %95 = call i64 @strlen(i8* %94) #3
  %96 = icmp ult i64 %90, %95
  br i1 %96, label %97, label %99

97:                                               ; preds = %85
  %98 = load i32, i32* %5, align 4
  store i32 %98, i32* %8, align 4
  br label %99

99:                                               ; preds = %97, %85
  br label %100

100:                                              ; preds = %99
  %101 = load i32, i32* %5, align 4
  %102 = add nsw i32 %101, 1
  store i32 %102, i32* %5, align 4
  br label %67

103:                                              ; preds = %67
  %104 = load i32, i32* %7, align 4
  %105 = sext i32 %104 to i64
  %106 = getelementptr inbounds [100 x [100 x i8]], [100 x [100 x i8]]* %3, i64 0, i64 %105
  %107 = getelementptr inbounds [100 x i8], [100 x i8]* %106, i64 0, i64 0
  %108 = call i32 (i8*, ...) @printf(i8* getelementptr inbounds ([4 x i8], [4 x i8]* @.str, i64 0, i64 0), i8* %107)
  %109 = load i32, i32* %8, align 4
  %110 = sext i32 %109 to i64
  %111 = getelementptr inbounds [100 x [100 x i8]], [100 x [100 x i8]]* %3, i64 0, i64 %110
  %112 = getelementptr inbounds [100 x i8], [100 x i8]* %111, i64 0, i64 0
  %113 = call i32 (i8*, ...) @printf(i8* getelementptr inbounds ([4 x i8], [4 x i8]* @.str, i64 0, i64 0), i8* %112)
  ret i32 0
}

declare dso_local i32 @gets(...) #1

; Function Attrs: nounwind readonly
declare dso_local i64 @strlen(i8*) #2

declare dso_local i32 @printf(i8*, ...) #1


!llvm.module.flags = !{!0}
!llvm.ident = !{!1}

!0 = !{i32 1, !"wchar_size", i32 4}
!1 = !{!"clang version 10.0.0-4ubuntu1 "}
